; ModuleID = '3/3181.c'
source_filename = "3/3181.c"
target datalayout = "e-m:e-p270:32:32-p271:32:32-p272:64:64-i64:64-f80:128-n8:16:32:64-S128"
target triple = "x86_64-pc-linux-gnu"

@.str = private unnamed_addr constant [5 x i8] c"%d%d\00", align 1
@.str.1 = private unnamed_addr constant [3 x i8] c"%d\00", align 1
@.str.2 = private unnamed_addr constant [4 x i8] c"yes\00", align 1
@.str.3 = private unnamed_addr constant [3 x i8] c"no\00", align 1

; Function Attrs: noinline nounwind uwtable
define dso_local i32 @bj(i8* %0, i8* %1) #0 {
  %3 = alloca i32, align 4
  %4 = alloca i8*, align 8
  %5 = alloca i8*, align 8
  store i8* %0, i8** %4, align 8
  store i8* %1, i8** %5, align 8
  %6 = load i8*, i8** %4, align 8
  %7 = bitcast i8* %6 to i32*
  %8 = load i32, i32* %7, align 4
  %9 = load i8*, i8** %5, align 8
  %10 = bitcast i8* %9 to i32*
  %11 = load i32, i32* %10, align 4
  %12 = icmp sgt i32 %8, %11
  br i1 %12, label %13, label %14

13:                                               ; preds = %2
  store i32 1, i32* %3, align 4
  br label %32

14:                                               ; preds = %2
  %15 = load i8*, i8** %4, align 8
  %16 = bitcast i8* %15 to i32*
  %17 = load i32, i32* %16, align 4
  %18 = load i8*, i8** %5, align 8
  %19 = bitcast i8* %18 to i32*
  %20 = load i32, i32* %19, align 4
  %21 = icmp slt i32 %17, %20
  br i1 %21, label %22, label %23

22:                                               ; preds = %14
  store i32 -1, i32* %3, align 4
  br label %32

23:                                               ; preds = %14
  %24 = load i8*, i8** %4, align 8
  %25 = bitcast i8* %24 to i32*
  %26 = load i32, i32* %25, align 4
  %27 = load i8*, i8** %5, align 8
  %28 = bitcast i8* %27 to i32*
  %29 = load i32, i32* %28, align 4
  %30 = icmp eq i32 %26, %29
  br i1 %30, label %31, label %32

31:                                               ; preds = %23
  store i32 0, i32* %3, align 4
  br label %32

32:                                               ; preds = %13, %22, %31, %23
  %33 = load i32, i32* %3, align 4
  ret i32 %33
}

; Function Attrs: noinline nounwind uwtable
define dso_local i32 @main() #0 {
  %1 = alloca i32, align 4
  %2 = alloca i32, align 4
  %3 = alloca i32, align 4
  %4 = alloca i32, align 4
  %5 = alloca i32, align 4
  %6 = alloca [1000 x i32], align 16
  %7 = alloca i32, align 4
  store i32 0, i32* %1, align 4
  store i32 0, i32* %7, align 4
  %8 = call i32 (i8*, ...) @__isoc99_scanf(i8* getelementptr inbounds ([5 x i8], [5 x i8]* @.str, i64 0, i64 0), i32* %2, i32* %3)
  store i32 0, i32* %4, align 4
  br label %9

9:                                                ; preds = %18, %0
  %10 = load i32, i32* %4, align 4
  %11 = load i32, i32* %2, align 4
  %12 = icmp slt i32 %10, %11
  br i1 %12, label %13, label %21

13:                                               ; preds = %9
  %14 = load i32, i32* %4, align 4
  %15 = sext i32 %14 to i64
  %16 = getelementptr inbounds [1000 x i32], [1000 x i32]* %6, i64 0, i64 %15
  %17 = call i32 (i8*, ...) @__isoc99_scanf(i8* getelementptr inbounds ([3 x i8], [3 x i8]* @.str.1, i64 0, i64 0), i32* %16)
  br label %18

18:                                               ; preds = %13
  %19 = load i32, i32* %4, align 4
  %20 = add nsw i32 %19, 1
  store i32 %20, i32* %4, align 4
  br label %9

21:                                               ; preds = %9
  %22 = getelementptr inbounds [1000 x i32], [1000 x i32]* %6, i64 0, i64 0
  %23 = bitcast i32* %22 to i8*
  %24 = load i32, i32* %2, align 4
  %25 = sext i32 %24 to i64
  call void @qsort(i8* %23, i64 %25, i64 4, i32 (i8*, i8*)* @bj)
  store i32 0, i32* %4, align 4
  br label %26

26:                                               ; preds = %74, %21
  %27 = load i32, i32* %4, align 4
  %28 = load i32, i32* %2, align 4
  %29 = sub nsw i32 %28, 1
  %30 = icmp slt i32 %27, %29
  br i1 %30, label %31, label %77

31:                                               ; preds = %26
  %32 = load i32, i32* %2, align 4
  %33 = sub nsw i32 %32, 1
  store i32 %33, i32* %5, align 4
  br label %34

34:                                               ; preds = %66, %31
  %35 = load i32, i32* %5, align 4
  %36 = load i32, i32* %4, align 4
  %37 = icmp sgt i32 %35, %36
  br i1 %37, label %38, label %69

38:                                               ; preds = %34
  %39 = load i32, i32* %4, align 4
  %40 = sext i32 %39 to i64
  %41 = getelementptr inbounds [1000 x i32], [1000 x i32]* %6, i64 0, i64 %40
  %42 = load i32, i32* %41, align 4
  %43 = load i32, i32* %5, align 4
  %44 = sext i32 %43 to i64
  %45 = getelementptr inbounds [1000 x i32], [1000 x i32]* %6, i64 0, i64 %44
  %46 = load i32, i32* %45, align 4
  %47 = add nsw i32 %42, %46
  %48 = load i32, i32* %3, align 4
  %49 = icmp slt i32 %47, %48
  br i1 %49, label %50, label %51

50:                                               ; preds = %38
  br label %69

51:                                               ; preds = %38
  %52 = load i32, i32* %4, align 4
  %53 = sext i32 %52 to i64
  %54 = getelementptr inbounds [1000 x i32], [1000 x i32]* %6, i64 0, i64 %53
  %55 = load i32, i32* %54, align 4
  %56 = load i32, i32* %5, align 4
  %57 = sext i32 %56 to i64
  %58 = getelementptr inbounds [1000 x i32], [1000 x i32]* %6, i64 0, i64 %57
  %59 = load i32, i32* %58, align 4
  %60 = add nsw i32 %55, %59
  %61 = load i32, i32* %3, align 4
  %62 = icmp eq i32 %60, %61
  br i1 %62, label %63, label %64

63:                                               ; preds = %51
  store i32 1, i32* %7, align 4
  br label %69

64:                                               ; preds = %51
  br label %65

65:                                               ; preds = %64
  br label %66

66:                                               ; preds = %65
  %67 = load i32, i32* %5, align 4
  %68 = add nsw i32 %67, -1
  store i32 %68, i32* %5, align 4
  br label %34

69:                                               ; preds = %63, %50, %34
  %70 = load i32, i32* %7, align 4
  %71 = icmp eq i32 %70, 1
  br i1 %71, label %72, label %73

72:                                               ; preds = %69
  br label %77

73:                                               ; preds = %69
  br label %74

74:                                               ; preds = %73
  %75 = load i32, i32* %4, align 4
  %76 = add nsw i32 %75, 1
  store i32 %76, i32* %4, align 4
  br label %26

77:                                               ; preds = %72, %26
  %78 = load i32, i32* %7, align 4
  %79 = icmp eq i32 %78, 1
  br i1 %79, label %80, label %82

80:                                               ; preds = %77
  %81 = call i32 (i8*, ...) @printf(i8* getelementptr inbounds ([4 x i8], [4 x i8]* @.str.2, i64 0, i64 0))
  br label %84

82:                                               ; preds = %77
  %83 = call i32 (i8*, ...) @printf(i8* getelementptr inbounds ([3 x i8], [3 x i8]* @.str.3, i64 0, i64 0))
  br label %84

84:                                               ; preds = %82, %80
  %85 = load i32, i32* %1, align 4
  ret i32 %85
}

declare dso_local i32 @__isoc99_scanf(i8*, ...) #1

declare dso_local void @qsort(i8*, i64, i64, i32 (i8*, i8*)*) #1

declare dso_local i32 @printf(i8*, ...) #1


!llvm.module.flags = !{!0}
!llvm.ident = !{!1}

!0 = !{i32 1, !"wchar_size", i32 4}
!1 = !{!"clang version 10.0.0-4ubuntu1 "}
