; ModuleID = 'source-C-CXX/2/3181.c'
source_filename = "source-C-CXX/2/3181.c"
target datalayout = "e-m:e-p270:32:32-p271:32:32-p272:64:64-i64:64-f80:128-n8:16:32:64-S128"
target triple = "x86_64-pc-linux-gnu"

@.str = private unnamed_addr constant [5 x i8] c"%d%d\00", align 1
@.str.1 = private unnamed_addr constant [3 x i8] c"%d\00", align 1
@.str.2 = private unnamed_addr constant [4 x i8] c"yes\00", align 1
@.str.3 = private unnamed_addr constant [3 x i8] c"no\00", align 1

; Function Attrs: mustprogress nofree norecurse nosync nounwind readonly sspstrong uwtable willreturn
define dso_local i32 @bj(i8* nocapture readonly %0, i8* nocapture readonly %1) #0 {
  %3 = bitcast i8* %0 to i32*
  %4 = load i32, i32* %3, align 4, !tbaa !5
  %5 = bitcast i8* %1 to i32*
  %6 = load i32, i32* %5, align 4, !tbaa !5
  %7 = icmp sgt i32 %4, %6
  %8 = icmp slt i32 %4, %6
  %9 = sext i1 %8 to i32
  %10 = select i1 %7, i32 1, i32 %9
  ret i32 %10
}

; Function Attrs: nofree nounwind sspstrong uwtable
define dso_local i32 @main() local_unnamed_addr #1 {
  %1 = alloca i32, align 4
  %2 = alloca i32, align 4
  %3 = alloca [1000 x i32], align 16
  %4 = bitcast i32* %1 to i8*
  call void @llvm.lifetime.start.p0i8(i64 4, i8* nonnull %4) #5
  %5 = bitcast i32* %2 to i8*
  call void @llvm.lifetime.start.p0i8(i64 4, i8* nonnull %5) #5
  %6 = bitcast [1000 x i32]* %3 to i8*
  call void @llvm.lifetime.start.p0i8(i64 4000, i8* nonnull %6) #5
  %7 = call i32 (i8*, ...) @__isoc99_scanf(i8* getelementptr inbounds ([5 x i8], [5 x i8]* @.str, i64 0, i64 0), i32* nonnull %1, i32* nonnull %2)
  %8 = load i32, i32* %1, align 4, !tbaa !5
  %9 = icmp sgt i32 %8, 0
  br i1 %9, label %10, label %18

10:                                               ; preds = %0, %10
  %11 = phi i64 [ %14, %10 ], [ 0, %0 ]
  %12 = getelementptr inbounds [1000 x i32], [1000 x i32]* %3, i64 0, i64 %11
  %13 = call i32 (i8*, ...) @__isoc99_scanf(i8* getelementptr inbounds ([3 x i8], [3 x i8]* @.str.1, i64 0, i64 0), i32* nonnull %12)
  %14 = add nuw nsw i64 %11, 1
  %15 = load i32, i32* %1, align 4, !tbaa !5
  %16 = sext i32 %15 to i64
  %17 = icmp slt i64 %14, %16
  br i1 %17, label %10, label %18, !llvm.loop !9

18:                                               ; preds = %10, %0
  %19 = phi i32 [ %8, %0 ], [ %15, %10 ]
  %20 = sext i32 %19 to i64
  call void @qsort(i8* nonnull %6, i64 %20, i64 4, i32 (i8*, i8*)* nonnull @bj) #5
  %21 = load i32, i32* %1, align 4, !tbaa !5
  %22 = add i32 %21, -1
  %23 = load i32, i32* %2, align 4
  %24 = icmp sgt i32 %21, 1
  br i1 %24, label %25, label %51

25:                                               ; preds = %18
  %26 = zext i32 %21 to i64
  %27 = add nsw i64 %26, -1
  %28 = zext i32 %22 to i64
  %29 = zext i32 %22 to i64
  br label %30

30:                                               ; preds = %46, %25
  %31 = phi i64 [ 0, %25 ], [ %47, %46 ]
  %32 = phi i1 [ true, %25 ], [ %48, %46 ]
  %33 = getelementptr inbounds [1000 x i32], [1000 x i32]* %3, i64 0, i64 %31
  %34 = load i32, i32* %33, align 4, !tbaa !5
  br label %37

35:                                               ; preds = %43
  %36 = icmp sgt i64 %45, %31
  br i1 %36, label %37, label %46, !llvm.loop !11

37:                                               ; preds = %30, %35
  %38 = phi i64 [ %27, %30 ], [ %45, %35 ]
  %39 = getelementptr inbounds [1000 x i32], [1000 x i32]* %3, i64 0, i64 %38
  %40 = load i32, i32* %39, align 4, !tbaa !5
  %41 = add nsw i32 %40, %34
  %42 = icmp slt i32 %41, %23
  br i1 %42, label %46, label %43

43:                                               ; preds = %37
  %44 = icmp eq i32 %41, %23
  %45 = add nsw i64 %38, -1
  br i1 %44, label %50, label %35

46:                                               ; preds = %37, %35
  %47 = add nuw nsw i64 %31, 1
  %48 = icmp ult i64 %47, %28
  %49 = icmp eq i64 %47, %29
  br i1 %49, label %51, label %30, !llvm.loop !12

50:                                               ; preds = %43
  br i1 %32, label %52, label %51

51:                                               ; preds = %46, %18, %50
  br label %52

52:                                               ; preds = %50, %51
  %53 = phi i8* [ getelementptr inbounds ([3 x i8], [3 x i8]* @.str.3, i64 0, i64 0), %51 ], [ getelementptr inbounds ([4 x i8], [4 x i8]* @.str.2, i64 0, i64 0), %50 ]
  %54 = call i32 (i8*, ...) @printf(i8* nonnull dereferenceable(1) %53)
  call void @llvm.lifetime.end.p0i8(i64 4000, i8* nonnull %6) #5
  call void @llvm.lifetime.end.p0i8(i64 4, i8* nonnull %5) #5
  call void @llvm.lifetime.end.p0i8(i64 4, i8* nonnull %4) #5
  ret i32 0
}

; Function Attrs: argmemonly mustprogress nofree nosync nounwind willreturn
declare void @llvm.lifetime.start.p0i8(i64 immarg, i8* nocapture) #2

; Function Attrs: nofree nounwind
declare noundef i32 @__isoc99_scanf(i8* nocapture noundef readonly, ...) local_unnamed_addr #3

; Function Attrs: nofree
declare void @qsort(i8* noundef, i64 noundef, i64 noundef, i32 (i8*, i8*)* nocapture noundef) local_unnamed_addr #4

; Function Attrs: nofree nounwind
declare noundef i32 @printf(i8* nocapture noundef readonly, ...) local_unnamed_addr #3

; Function Attrs: argmemonly mustprogress nofree nosync nounwind willreturn
declare void @llvm.lifetime.end.p0i8(i64 immarg, i8* nocapture) #2


!llvm.module.flags = !{!0, !1, !2, !3}
!llvm.ident = !{!4}

!0 = !{i32 1, !"wchar_size", i32 4}
!1 = !{i32 7, !"PIC Level", i32 2}
!2 = !{i32 7, !"PIE Level", i32 2}
!3 = !{i32 7, !"uwtable", i32 1}
!4 = !{!"clang version 13.0.0"}
!5 = !{!6, !6, i64 0}
!6 = !{!"int", !7, i64 0}
!7 = !{!"omnipotent char", !8, i64 0}
!8 = !{!"Simple C/C++ TBAA"}
!9 = distinct !{!9, !10}
!10 = !{!"llvm.loop.mustprogress"}
!11 = distinct !{!11, !10}
!12 = distinct !{!12, !10}
